#include <math.h>
#include <stdio.h>
#include <stdlib.h>
#include <string.h>
#include <iostream>
using namespace std;

/*
 * e.cpp
 * ?????
 * ????: 2010-12-8
 * ???????
 */

int find_factor(int a,int b)
{
	int i,sum=0;
	if(a==1) return 1;
	for(i=b;i<=a;i++)
		if(a%i==0)
			sum=sum+find_factor(a/i,i);
	return sum;
}

int main(void)
{
	int n;
	cin>>n;
	int a;
	for(int i=1;i<=n;i++)
	{
		cin>>a;
		cout<<find_factor(a,2)<<endl;
	}
	return 0;
}